target datalayout = "e-m:e-p270:32:32-p271:32:32-p272:64:64-i64:64-i128:128-f80:128-n8:16:32:64-S128"
target triple = "x86_64-pc-linux-gnu"

%"class.zxing::Ref.30" = type { ptr }
%"struct.zxing::qrcode::Detector::Rect_" = type { i32, i32, i32, i32 }

; Function Attrs: mustprogress nounwind uwtable
define linkonce_odr hidden noundef ptr @_ZNK5zxing3RefINS_11ResultPointEEptEv(ptr noundef nonnull align 8 dereferenceable(8) %0) #1 comdat align 2 {
  %2 = alloca ptr, align 8
  store ptr %0, ptr %2, align 8, !tbaa !102
  %3 = load ptr, ptr %2, align 8
  %4 = getelementptr inbounds nuw %"class.zxing::Ref.30", ptr %3, i32 0, i32 0
  %5 = load ptr, ptr %4, align 8, !tbaa !106
  ret ptr %5
}

; Function Attrs: mustprogress uwtable
define hidden noundef zeroext i1 @_ZN5zxing6qrcode8Detector14checkToleranceERNS_3RefINS_11ResultPointEEES5_RNS1_5Rect_EdS5_i(ptr noundef nonnull align 8 dereferenceable(60) %0, ptr noundef nonnull align 8 dereferenceable(8) %1, ptr noundef nonnull align 8 dereferenceable(8) %2, ptr noundef nonnull align 4 dereferenceable(16) %3, double noundef %4, ptr noundef nonnull align 8 dereferenceable(8) %5, i32 noundef %6) #0 align 2 {
  %8 = alloca i1, align 1
  %9 = alloca ptr, align 8
  %10 = alloca ptr, align 8
  %11 = alloca ptr, align 8
  %12 = alloca ptr, align 8
  %13 = alloca double, align 8
  %14 = alloca ptr, align 8
  %15 = alloca i32, align 4
  %16 = alloca i32, align 4
  %17 = alloca i32, align 4
  %18 = alloca i32, align 4
  %19 = alloca i32, align 4
  %20 = alloca double, align 8
  %21 = alloca double, align 8
  %22 = alloca double, align 8
  %23 = alloca double, align 8
  %24 = alloca double, align 8
  %25 = alloca double, align 8
  %26 = alloca double, align 8
  %27 = alloca double, align 8
  %28 = alloca double, align 8
  %29 = alloca double, align 8
  %30 = alloca i32, align 4
  %31 = alloca double, align 8
  %32 = alloca double, align 8
  %33 = alloca double, align 8
  %34 = alloca double, align 8
  %35 = alloca double, align 8
  store ptr %0, ptr %9, align 8, !tbaa !3
  store ptr %1, ptr %10, align 8, !tbaa !102
  store ptr %2, ptr %11, align 8, !tbaa !102
  store ptr %3, ptr %12, align 8, !tbaa !217
  store double %4, ptr %13, align 8, !tbaa !149
  store ptr %5, ptr %14, align 8, !tbaa !102
  store i32 %6, ptr %15, align 4, !tbaa !75
  call void @llvm.lifetime.start.p0(i64 4, ptr %16) #16
  %36 = load ptr, ptr %10, align 8, !tbaa !102
  %37 = call noundef ptr @_ZNK5zxing3RefINS_11ResultPointEEptEv(ptr noundef nonnull align 8 dereferenceable(8) %36)
  %38 = load ptr, ptr %37, align 8, !tbaa !12
  %39 = getelementptr inbounds ptr, ptr %38, i64 2
  %40 = load ptr, ptr %39, align 8
  %41 = call noundef float %40(ptr noundef nonnull align 8 dereferenceable(20) %37)
  %42 = fptosi float %41 to i32
  store i32 %42, ptr %16, align 4, !tbaa !75
  call void @llvm.lifetime.start.p0(i64 4, ptr %17) #16
  %43 = load ptr, ptr %10, align 8, !tbaa !102
  %44 = call noundef ptr @_ZNK5zxing3RefINS_11ResultPointEEptEv(ptr noundef nonnull align 8 dereferenceable(8) %43)
  %45 = load ptr, ptr %44, align 8, !tbaa !12
  %46 = getelementptr inbounds ptr, ptr %45, i64 3
  %47 = load ptr, ptr %46, align 8
  %48 = call noundef float %47(ptr noundef nonnull align 8 dereferenceable(20) %44)
  %49 = fptosi float %48 to i32
  store i32 %49, ptr %17, align 4, !tbaa !75
  call void @llvm.lifetime.start.p0(i64 4, ptr %18) #16
  %50 = load ptr, ptr %11, align 8, !tbaa !102
  %51 = call noundef ptr @_ZNK5zxing3RefINS_11ResultPointEEptEv(ptr noundef nonnull align 8 dereferenceable(8) %50)
  %52 = load ptr, ptr %51, align 8, !tbaa !12
  %53 = getelementptr inbounds ptr, ptr %52, i64 2
  %54 = load ptr, ptr %53, align 8
  %55 = call noundef float %54(ptr noundef nonnull align 8 dereferenceable(20) %51)
  %56 = fptosi float %55 to i32
  store i32 %56, ptr %18, align 4, !tbaa !75
  call void @llvm.lifetime.start.p0(i64 4, ptr %19) #16
  %57 = load ptr, ptr %11, align 8, !tbaa !102
  %58 = call noundef ptr @_ZNK5zxing3RefINS_11ResultPointEEptEv(ptr noundef nonnull align 8 dereferenceable(8) %57)
  %59 = load ptr, ptr %58, align 8, !tbaa !12
  %60 = getelementptr inbounds ptr, ptr %59, i64 3
  %61 = load ptr, ptr %60, align 8
  %62 = call noundef float %61(ptr noundef nonnull align 8 dereferenceable(20) %58)
  %63 = fptosi float %62 to i32
  store i32 %63, ptr %19, align 4, !tbaa !75
  call void @llvm.lifetime.start.p0(i64 8, ptr %20) #16
  store double 0.000000e+00, ptr %20, align 8, !tbaa !149
  call void @llvm.lifetime.start.p0(i64 8, ptr %21) #16
  store double 0.000000e+00, ptr %21, align 8, !tbaa !149
  call void @llvm.lifetime.start.p0(i64 8, ptr %22) #16
  call void @llvm.lifetime.start.p0(i64 8, ptr %23) #16
  store double 0.000000e+00, ptr %23, align 8, !tbaa !149
  call void @llvm.lifetime.start.p0(i64 8, ptr %24) #16
  store double 0.000000e+00, ptr %24, align 8, !tbaa !149
  %64 = load i32, ptr %15, align 4, !tbaa !75
  %65 = icmp slt i32 %64, 2
  br i1 %65, label %66, label %153

66:                                               ; preds = %7
  call void @llvm.lifetime.start.p0(i64 8, ptr %25) #16
  store double 0.000000e+00, ptr %25, align 8, !tbaa !149
  call void @llvm.lifetime.start.p0(i64 8, ptr %26) #16
  store double 0.000000e+00, ptr %26, align 8, !tbaa !149
  call void @llvm.lifetime.start.p0(i64 8, ptr %27) #16
  %67 = load ptr, ptr %12, align 8, !tbaa !217
  %68 = getelementptr inbounds nuw %"struct.zxing::qrcode::Detector::Rect_", ptr %67, i32 0, i32 0
  %69 = load i32, ptr %68, align 4, !tbaa !151
  %70 = sitofp i32 %69 to double
  store double %70, ptr %27, align 8, !tbaa !149
  %71 = load i32, ptr %15, align 4, !tbaa !75
  %72 = icmp eq i32 %71, 1
  br i1 %72, label %73, label %82

73:                                               ; preds = %66
  %74 = load ptr, ptr %12, align 8, !tbaa !217
  %75 = getelementptr inbounds nuw %"struct.zxing::qrcode::Detector::Rect_", ptr %74, i32 0, i32 0
  %76 = load i32, ptr %75, align 4, !tbaa !151
  %77 = load ptr, ptr %12, align 8, !tbaa !217
  %78 = getelementptr inbounds nuw %"struct.zxing::qrcode::Detector::Rect_", ptr %77, i32 0, i32 2
  %79 = load i32, ptr %78, align 4, !tbaa !154
  %80 = add nsw i32 %76, %79
  %81 = sitofp i32 %80 to double
  store double %81, ptr %27, align 8, !tbaa !149
  br label %82

82:                                               ; preds = %73, %66
  %83 = load i32, ptr %18, align 4, !tbaa !75
  %84 = load i32, ptr %16, align 4, !tbaa !75
  %85 = icmp ne i32 %83, %84
  br i1 %85, label %86, label %129

86:                                               ; preds = %82
  %87 = load i32, ptr %19, align 4, !tbaa !75
  %88 = load i32, ptr %17, align 4, !tbaa !75
  %89 = sub nsw i32 %87, %88
  %90 = sitofp i32 %89 to double
  %91 = load i32, ptr %18, align 4, !tbaa !75
  %92 = load i32, ptr %16, align 4, !tbaa !75
  %93 = sub nsw i32 %91, %92
  %94 = sitofp i32 %93 to double
  %95 = fdiv double %90, %94
  store double %95, ptr %20, align 8, !tbaa !149
  %96 = load i32, ptr %19, align 4, !tbaa !75
  %97 = sitofp i32 %96 to double
  %98 = load double, ptr %20, align 8, !tbaa !149
  %99 = load i32, ptr %18, align 4, !tbaa !75
  %100 = sitofp i32 %99 to double
  %101 = fneg double %98
  %102 = call double @llvm.fmuladd.f64(double %101, double %100, double %97)
  store double %102, ptr %21, align 8, !tbaa !149
  call void @llvm.lifetime.start.p0(i64 8, ptr %28) #16
  %103 = load double, ptr %13, align 8, !tbaa !149
  %104 = fmul double %103, 2.500000e+00
  store double %104, ptr %28, align 8, !tbaa !149
  call void @llvm.lifetime.start.p0(i64 8, ptr %29) #16
  %105 = load double, ptr %28, align 8, !tbaa !149
  %106 = load double, ptr %20, align 8, !tbaa !149
  %107 = fmul double %105, %106
  store double %107, ptr %29, align 8, !tbaa !149
  %108 = load double, ptr %28, align 8, !tbaa !149
  %109 = load double, ptr %28, align 8, !tbaa !149
  %110 = load double, ptr %29, align 8, !tbaa !149
  %111 = load double, ptr %29, align 8, !tbaa !149
  %112 = fmul double %110, %111
  %113 = call double @llvm.fmuladd.f64(double %108, double %109, double %112)
  %114 = call double @sqrt(double noundef %113) #16, !tbaa !75
  store double %114, ptr %22, align 8, !tbaa !149
  %115 = load double, ptr %21, align 8, !tbaa !149
  %116 = load double, ptr %22, align 8, !tbaa !149
  %117 = fsub double %115, %116
  store double %117, ptr %23, align 8, !tbaa !149
  %118 = load double, ptr %21, align 8, !tbaa !149
  %119 = load double, ptr %22, align 8, !tbaa !149
  %120 = fadd double %118, %119
  store double %120, ptr %24, align 8, !tbaa !149
  %121 = load double, ptr %20, align 8, !tbaa !149
  %122 = load double, ptr %27, align 8, !tbaa !149
  %123 = load double, ptr %23, align 8, !tbaa !149
  %124 = call double @llvm.fmuladd.f64(double %121, double %122, double %123)
  store double %124, ptr %25, align 8, !tbaa !149
  %125 = load double, ptr %20, align 8, !tbaa !149
  %126 = load double, ptr %27, align 8, !tbaa !149
  %127 = load double, ptr %24, align 8, !tbaa !149
  %128 = call double @llvm.fmuladd.f64(double %125, double %126, double %127)
  store double %128, ptr %26, align 8, !tbaa !149
  call void @llvm.lifetime.end.p0(i64 8, ptr %29) #16
  call void @llvm.lifetime.end.p0(i64 8, ptr %28) #16
  br label %130

129:                                              ; preds = %82
  store i1 false, ptr %8, align 1
  store i32 1, ptr %30, align 4
  br label %152

130:                                              ; preds = %86
  %131 = load ptr, ptr %14, align 8, !tbaa !102
  %132 = call noundef ptr @_ZNK5zxing3RefINS_11ResultPointEEptEv(ptr noundef nonnull align 8 dereferenceable(8) %131)
  %133 = load ptr, ptr %132, align 8, !tbaa !12
  %134 = getelementptr inbounds ptr, ptr %133, i64 3
  %135 = load ptr, ptr %134, align 8
  %136 = call noundef float %135(ptr noundef nonnull align 8 dereferenceable(20) %132)
  %137 = fpext float %136 to double
  %138 = load double, ptr %25, align 8, !tbaa !149
  %139 = fcmp olt double %137, %138
  br i1 %139, label %150, label %140

140:                                              ; preds = %130
  %141 = load ptr, ptr %14, align 8, !tbaa !102
  %142 = call noundef ptr @_ZNK5zxing3RefINS_11ResultPointEEptEv(ptr noundef nonnull align 8 dereferenceable(8) %141)
  %143 = load ptr, ptr %142, align 8, !tbaa !12
  %144 = getelementptr inbounds ptr, ptr %143, i64 3
  %145 = load ptr, ptr %144, align 8
  %146 = call noundef float %145(ptr noundef nonnull align 8 dereferenceable(20) %142)
  %147 = fpext float %146 to double
  %148 = load double, ptr %26, align 8, !tbaa !149
  %149 = fcmp ogt double %147, %148
  br i1 %149, label %150, label %151

150:                                              ; preds = %140, %130
  store i1 false, ptr %8, align 1
  store i32 1, ptr %30, align 4
  br label %152

151:                                              ; preds = %140
  store i1 true, ptr %8, align 1
  store i32 1, ptr %30, align 4
  br label %152

152:                                              ; preds = %151, %150, %129
  call void @llvm.lifetime.end.p0(i64 8, ptr %27) #16
  call void @llvm.lifetime.end.p0(i64 8, ptr %26) #16
  call void @llvm.lifetime.end.p0(i64 8, ptr %25) #16
  br label %240

153:                                              ; preds = %7
  call void @llvm.lifetime.start.p0(i64 8, ptr %31) #16
  store double 0.000000e+00, ptr %31, align 8, !tbaa !149
  call void @llvm.lifetime.start.p0(i64 8, ptr %32) #16
  store double 0.000000e+00, ptr %32, align 8, !tbaa !149
  %154 = load i32, ptr %19, align 4, !tbaa !75
  %155 = load i32, ptr %17, align 4, !tbaa !75
  %156 = icmp ne i32 %154, %155
  br i1 %156, label %157, label %238

157:                                              ; preds = %153
  call void @llvm.lifetime.start.p0(i64 8, ptr %33) #16
  %158 = load ptr, ptr %12, align 8, !tbaa !217
  %159 = getelementptr inbounds nuw %"struct.zxing::qrcode::Detector::Rect_", ptr %158, i32 0, i32 1
  %160 = load i32, ptr %159, align 4, !tbaa !153
  %161 = sitofp i32 %160 to double
  store double %161, ptr %33, align 8, !tbaa !149
  %162 = load i32, ptr %15, align 4, !tbaa !75
  %163 = icmp eq i32 %162, 3
  br i1 %163, label %164, label %173

164:                                              ; preds = %157
  %165 = load ptr, ptr %12, align 8, !tbaa !217
  %166 = getelementptr inbounds nuw %"struct.zxing::qrcode::Detector::Rect_", ptr %165, i32 0, i32 1
  %167 = load i32, ptr %166, align 4, !tbaa !153
  %168 = load ptr, ptr %12, align 8, !tbaa !217
  %169 = getelementptr inbounds nuw %"struct.zxing::qrcode::Detector::Rect_", ptr %168, i32 0, i32 3
  %170 = load i32, ptr %169, align 4, !tbaa !155
  %171 = add nsw i32 %167, %170
  %172 = sitofp i32 %171 to double
  store double %172, ptr %33, align 8, !tbaa !149
  br label %173

173:                                              ; preds = %164, %157
  %174 = load i32, ptr %18, align 4, !tbaa !75
  %175 = load i32, ptr %16, align 4, !tbaa !75
  %176 = sub nsw i32 %174, %175
  %177 = sitofp i32 %176 to double
  %178 = load i32, ptr %19, align 4, !tbaa !75
  %179 = load i32, ptr %17, align 4, !tbaa !75
  %180 = sub nsw i32 %178, %179
  %181 = sitofp i32 %180 to double
  %182 = fdiv double %177, %181
  store double %182, ptr %20, align 8, !tbaa !149
  %183 = load i32, ptr %18, align 4, !tbaa !75
  %184 = sitofp i32 %183 to double
  %185 = load double, ptr %20, align 8, !tbaa !149
  %186 = load i32, ptr %19, align 4, !tbaa !75
  %187 = sitofp i32 %186 to double
  %188 = fneg double %185
  %189 = call double @llvm.fmuladd.f64(double %188, double %187, double %184)
  store double %189, ptr %21, align 8, !tbaa !149
  call void @llvm.lifetime.start.p0(i64 8, ptr %34) #16
  %190 = load double, ptr %13, align 8, !tbaa !149
  %191 = fmul double %190, 2.500000e+00
  store double %191, ptr %34, align 8, !tbaa !149
  call void @llvm.lifetime.start.p0(i64 8, ptr %35) #16
  %192 = load double, ptr %34, align 8, !tbaa !149
  %193 = load double, ptr %20, align 8, !tbaa !149
  %194 = fdiv double %192, %193
  store double %194, ptr %35, align 8, !tbaa !149
  %195 = load double, ptr %34, align 8, !tbaa !149
  %196 = load double, ptr %34, align 8, !tbaa !149
  %197 = load double, ptr %35, align 8, !tbaa !149
  %198 = load double, ptr %35, align 8, !tbaa !149
  %199 = fmul double %197, %198
  %200 = call double @llvm.fmuladd.f64(double %195, double %196, double %199)
  %201 = call double @sqrt(double noundef %200) #16, !tbaa !75
  store double %201, ptr %22, align 8, !tbaa !149
  %202 = load double, ptr %21, align 8, !tbaa !149
  %203 = load double, ptr %22, align 8, !tbaa !149
  %204 = fsub double %202, %203
  store double %204, ptr %23, align 8, !tbaa !149
  %205 = load double, ptr %21, align 8, !tbaa !149
  %206 = load double, ptr %22, align 8, !tbaa !149
  %207 = fadd double %205, %206
  store double %207, ptr %24, align 8, !tbaa !149
  %208 = load double, ptr %20, align 8, !tbaa !149
  %209 = load double, ptr %33, align 8, !tbaa !149
  %210 = load double, ptr %23, align 8, !tbaa !149
  %211 = call double @llvm.fmuladd.f64(double %208, double %209, double %210)
  store double %211, ptr %31, align 8, !tbaa !149
  %212 = load double, ptr %20, align 8, !tbaa !149
  %213 = load double, ptr %33, align 8, !tbaa !149
  %214 = load double, ptr %24, align 8, !tbaa !149
  %215 = call double @llvm.fmuladd.f64(double %212, double %213, double %214)
  store double %215, ptr %32, align 8, !tbaa !149
  %216 = load ptr, ptr %14, align 8, !tbaa !102
  %217 = call noundef ptr @_ZNK5zxing3RefINS_11ResultPointEEptEv(ptr noundef nonnull align 8 dereferenceable(8) %216)
  %218 = load ptr, ptr %217, align 8, !tbaa !12
  %219 = getelementptr inbounds ptr, ptr %218, i64 2
  %220 = load ptr, ptr %219, align 8
  %221 = call noundef float %220(ptr noundef nonnull align 8 dereferenceable(20) %217)
  %222 = fpext float %221 to double
  %223 = load double, ptr %31, align 8, !tbaa !149
  %224 = fcmp olt double %222, %223
  br i1 %224, label %235, label %225

225:                                              ; preds = %173
  %226 = load ptr, ptr %14, align 8, !tbaa !102
  %227 = call noundef ptr @_ZNK5zxing3RefINS_11ResultPointEEptEv(ptr noundef nonnull align 8 dereferenceable(8) %226)
  %228 = load ptr, ptr %227, align 8, !tbaa !12
  %229 = getelementptr inbounds ptr, ptr %228, i64 2
  %230 = load ptr, ptr %229, align 8
  %231 = call noundef float %230(ptr noundef nonnull align 8 dereferenceable(20) %227)
  %232 = fpext float %231 to double
  %233 = load double, ptr %32, align 8, !tbaa !149
  %234 = fcmp ogt double %232, %233
  br i1 %234, label %235, label %236

235:                                              ; preds = %225, %173
  store i1 false, ptr %8, align 1
  store i32 1, ptr %30, align 4
  br label %237

236:                                              ; preds = %225
  store i1 true, ptr %8, align 1
  store i32 1, ptr %30, align 4
  br label %237

237:                                              ; preds = %236, %235
  call void @llvm.lifetime.end.p0(i64 8, ptr %35) #16
  call void @llvm.lifetime.end.p0(i64 8, ptr %34) #16
  call void @llvm.lifetime.end.p0(i64 8, ptr %33) #16
  br label %239

238:                                              ; preds = %153
  store i1 false, ptr %8, align 1
  store i32 1, ptr %30, align 4
  br label %239

239:                                              ; preds = %238, %237
  call void @llvm.lifetime.end.p0(i64 8, ptr %32) #16
  call void @llvm.lifetime.end.p0(i64 8, ptr %31) #16
  br label %240

240:                                              ; preds = %239, %152
  call void @llvm.lifetime.end.p0(i64 8, ptr %24) #16
  call void @llvm.lifetime.end.p0(i64 8, ptr %23) #16
  call void @llvm.lifetime.end.p0(i64 8, ptr %22) #16
  call void @llvm.lifetime.end.p0(i64 8, ptr %21) #16
  call void @llvm.lifetime.end.p0(i64 8, ptr %20) #16
  call void @llvm.lifetime.end.p0(i64 4, ptr %19) #16
  call void @llvm.lifetime.end.p0(i64 4, ptr %18) #16
  call void @llvm.lifetime.end.p0(i64 4, ptr %17) #16
  call void @llvm.lifetime.end.p0(i64 4, ptr %16) #16
  %241 = load i1, ptr %8, align 1
  ret i1 %241
}