; Function Attrs: mustprogress uwtable
define hidden noundef zeroext i1 @_ZN5zxing6qrcode8Detector14checkToleranceERNS_3RefINS_11ResultPointEEES5_RNS1_5Rect_EdS5_i(ptr noundef nonnull readnone align 8 captures(none) dereferenceable(60) %0, ptr noundef nonnull readonly align 8 captures(none) dereferenceable(8) %1, ptr noundef nonnull readonly align 8 captures(none) dereferenceable(8) %2, ptr noundef nonnull readonly align 4 captures(none) dereferenceable(16) %3, double noundef %4, ptr noundef nonnull readonly align 8 captures(none) dereferenceable(8) %5, i32 noundef %6) local_unnamed_addr #1 align 2 {
  %8 = load ptr, ptr %1, align 8, !tbaa !82
  %9 = load ptr, ptr %8, align 8, !tbaa !8
  %10 = getelementptr inbounds nuw i8, ptr %9, i64 16
  %11 = load ptr, ptr %10, align 8
  %12 = tail call noundef float %11(ptr noundef nonnull align 8 dereferenceable(20) %8)
  %13 = fptosi float %12 to i32
  %14 = load ptr, ptr %1, align 8, !tbaa !82
  %15 = load ptr, ptr %14, align 8, !tbaa !8
  %16 = getelementptr inbounds nuw i8, ptr %15, i64 24
  %17 = load ptr, ptr %16, align 8
  %18 = tail call noundef float %17(ptr noundef nonnull align 8 dereferenceable(20) %14)
  %19 = fptosi float %18 to i32
  %20 = load ptr, ptr %2, align 8, !tbaa !82
  %21 = load ptr, ptr %20, align 8, !tbaa !8
  %22 = getelementptr inbounds nuw i8, ptr %21, i64 16
  %23 = load ptr, ptr %22, align 8
  %24 = tail call noundef float %23(ptr noundef nonnull align 8 dereferenceable(20) %20)
  %25 = fptosi float %24 to i32
  %26 = load ptr, ptr %2, align 8, !tbaa !82
  %27 = load ptr, ptr %26, align 8, !tbaa !8
  %28 = getelementptr inbounds nuw i8, ptr %27, i64 24
  %29 = load ptr, ptr %28, align 8
  %30 = tail call noundef float %29(ptr noundef nonnull align 8 dereferenceable(20) %26)
  %31 = fptosi float %30 to i32
  %32 = icmp slt i32 %6, 2
  br i1 %32, label %33, label %73

33:                                               ; preds = %7
  %.not81 = icmp eq i32 %25, %13
  br i1 %.not81, label %114, label %34

34:                                               ; preds = %33
  %35 = icmp eq i32 %6, 1
  %36 = load i32, ptr %3, align 4, !tbaa !157
  %37 = getelementptr inbounds nuw i8, ptr %3, i64 8
  %38 = load i32, ptr %37, align 4
  %39 = select i1 %35, i32 %38, i32 0
  %.074.in = add nsw i32 %39, %36
  %.074 = sitofp i32 %.074.in to double
  %40 = sub nsw i32 %31, %19
  %41 = sitofp i32 %40 to double
  %42 = sub nsw i32 %25, %13
  %43 = sitofp i32 %42 to double
  %44 = fdiv double %41, %43
  %45 = sitofp i32 %31 to double
  %46 = sitofp i32 %25 to double
  %47 = fneg double %44
  %48 = tail call double @llvm.fmuladd.f64(double %47, double %46, double %45)
  %49 = fmul double %4, 2.500000e+00
  %50 = fmul double %49, %44
  %51 = fmul double %50, %50
  %52 = tail call double @llvm.fmuladd.f64(double %49, double %49, double %51)
  %sqrt = tail call double @llvm.sqrt.f64(double %52)
  %53 = fsub double %48, %sqrt
  %54 = tail call double @llvm.fmuladd.f64(double %44, double %.074, double %53)
  %55 = load ptr, ptr %5, align 8, !tbaa !82
  %56 = load ptr, ptr %55, align 8, !tbaa !8
  %57 = getelementptr inbounds nuw i8, ptr %56, i64 24
  %58 = load ptr, ptr %57, align 8
  %59 = tail call noundef float %58(ptr noundef nonnull align 8 dereferenceable(20) %55)
  %60 = fpext float %59 to double
  %61 = fcmp ogt double %54, %60
  br i1 %61, label %114, label %62

62:                                               ; preds = %34
  %63 = fadd double %48, %sqrt
  %64 = tail call double @llvm.fmuladd.f64(double %44, double %.074, double %63)
  %65 = load ptr, ptr %5, align 8, !tbaa !82
  %66 = load ptr, ptr %65, align 8, !tbaa !8
  %67 = getelementptr inbounds nuw i8, ptr %66, i64 24
  %68 = load ptr, ptr %67, align 8
  %69 = tail call noundef float %68(ptr noundef nonnull align 8 dereferenceable(20) %65)
  %70 = fpext float %69 to double
  %71 = fcmp olt double %64, %70
  br i1 %71, label %114, label %72

72:                                               ; preds = %62
  br label %114

73:                                               ; preds = %7
  %.not = icmp eq i32 %31, %19
  br i1 %.not, label %114, label %74

74:                                               ; preds = %73
  %75 = getelementptr inbounds nuw i8, ptr %3, i64 4
  %76 = load i32, ptr %75, align 4, !tbaa !160
  %77 = icmp eq i32 %6, 3
  %78 = getelementptr inbounds nuw i8, ptr %3, i64 12
  %79 = load i32, ptr %78, align 4
  %80 = select i1 %77, i32 %79, i32 0
  %.073.in = add nsw i32 %80, %76
  %.073 = sitofp i32 %.073.in to double
  %81 = sub nsw i32 %25, %13
  %82 = sitofp i32 %81 to double
  %83 = sub nsw i32 %31, %19
  %84 = sitofp i32 %83 to double
  %85 = fdiv double %82, %84
  %86 = sitofp i32 %25 to double
  %87 = sitofp i32 %31 to double
  %88 = fneg double %85
  %89 = tail call double @llvm.fmuladd.f64(double %88, double %87, double %86)
  %90 = fmul double %4, 2.500000e+00
  %91 = fdiv double %90, %85
  %92 = fmul double %91, %91
  %93 = tail call double @llvm.fmuladd.f64(double %90, double %90, double %92)
  %sqrt82 = tail call double @llvm.sqrt.f64(double %93)
  %94 = fsub double %89, %sqrt82
  %95 = tail call double @llvm.fmuladd.f64(double %85, double %.073, double %94)
  %96 = load ptr, ptr %5, align 8, !tbaa !82
  %97 = load ptr, ptr %96, align 8, !tbaa !8
  %98 = getelementptr inbounds nuw i8, ptr %97, i64 16
  %99 = load ptr, ptr %98, align 8
  %100 = tail call noundef float %99(ptr noundef nonnull align 8 dereferenceable(20) %96)
  %101 = fpext float %100 to double
  %102 = fcmp ogt double %95, %101
  br i1 %102, label %114, label %103

103:                                              ; preds = %74
  %104 = fadd double %89, %sqrt82
  %105 = tail call double @llvm.fmuladd.f64(double %85, double %.073, double %104)
  %106 = load ptr, ptr %5, align 8, !tbaa !82
  %107 = load ptr, ptr %106, align 8, !tbaa !8
  %108 = getelementptr inbounds nuw i8, ptr %107, i64 16
  %109 = load ptr, ptr %108, align 8
  %110 = tail call noundef float %109(ptr noundef nonnull align 8 dereferenceable(20) %106)
  %111 = fpext float %110 to double
  %112 = fcmp olt double %105, %111
  br i1 %112, label %114, label %113

113:                                              ; preds = %103
  br label %114

114:                                              ; preds = %74, %103, %113, %73, %72, %33, %62, %34
  %.1 = phi i1 [ true, %72 ], [ false, %33 ], [ false, %62 ], [ false, %34 ], [ true, %113 ], [ false, %103 ], [ false, %74 ], [ false, %73 ]
  ret i1 %.1
}